((dp0
S'home'
p1
(F-1.7884873528886067
F1.3223787289234323
F-1.7642683941575341
tp2
sS'door'
p3
(F-3.3833378382726624
F-1.5791536017348027
F0.3755943027912843
tp4
sS'charging'
p5
(F0.7675316183458039
F-1.1673712121343414
F-2.919639764252573
tp6
sS'center'
p7
(F-1.1527458264644925
F-0.11530075414351781
F-1.9263679350356948
tp8
s(dp9
tp10
.